target datalayout = "e-m:e-p270:32:32-p271:32:32-p272:64:64-i64:64-i128:128-f80:128-n8:16:32:64-S128"
target triple = "x86_64-unknown-linux-gnu"

%"class.icu_75::UMutex" = type { [40 x i8], %"struct.std::atomic", ptr }
%"struct.std::atomic" = type { %"struct.std::__atomic_base" }
%"struct.std::__atomic_base" = type { ptr }
%struct.UResourceBundle = type { ptr, ptr, ptr, ptr, ptr, [64 x i8], i32, i32, i8, i8, i32, i32, i32, i32 }
%"class.icu_75::Mutex" = type { ptr }
%struct.UResourceDataEntry = type { ptr, ptr, ptr, ptr, ptr, %struct.ResourceData, [3 x i8], i32, i32 }
%struct.ResourceData = type { ptr, ptr, ptr, ptr, i32, i32, ptr, i32, i32, i8, i8, i8, i8 }

@_ZL9resbMutex = internal global %"class.icu_75::UMutex" zeroinitializer, align 8

; Function Attrs: mustprogress nounwind uwtable
define linkonce_odr void @_ZN6icu_755MutexD2Ev(ptr noundef nonnull align 8 dereferenceable(8) %this) unnamed_addr #0 comdat align 2 personality ptr @__gxx_personality_v0 {
entry:
  %this.addr = alloca ptr, align 8
  store ptr %this, ptr %this.addr, align 8
  %this1 = load ptr, ptr %this.addr, align 8
  %fMutex = getelementptr inbounds %"class.icu_75::Mutex", ptr %this1, i32 0, i32 0
  %0 = load ptr, ptr %fMutex, align 8
  invoke void @umtx_unlock_75(ptr noundef %0)
          to label %invoke.cont unwind label %terminate.lpad

invoke.cont:                                      ; preds = %entry
  ret void

terminate.lpad:                                   ; preds = %entry
  %1 = landingpad { ptr, i32 }
          catch ptr null
  %2 = extractvalue { ptr, i32 } %1, 0
  call void @__clang_call_terminate(ptr %2) #12
  unreachable
}

; Function Attrs: mustprogress nounwind uwtable
define internal void @_ZL13entryCloseIntP18UResourceDataEntry(ptr noundef %resB) #0 {
entry:
  %resB.addr = alloca ptr, align 8
  %p = alloca ptr, align 8
  store ptr %resB, ptr %resB.addr, align 8
  %0 = load ptr, ptr %resB.addr, align 8
  store ptr %0, ptr %p, align 8
  br label %while.cond

while.cond:                                       ; preds = %while.body, %entry
  %1 = load ptr, ptr %resB.addr, align 8
  %cmp = icmp ne ptr %1, null
  br i1 %cmp, label %while.body, label %while.end

while.body:                                       ; preds = %while.cond
  %2 = load ptr, ptr %resB.addr, align 8
  %fParent = getelementptr inbounds %struct.UResourceDataEntry, ptr %2, i32 0, i32 2
  %3 = load ptr, ptr %fParent, align 8
  store ptr %3, ptr %p, align 8
  %4 = load ptr, ptr %resB.addr, align 8
  %fCountExisting = getelementptr inbounds %struct.UResourceDataEntry, ptr %4, i32 0, i32 7
  %5 = load i32, ptr %fCountExisting, align 4
  %dec = add i32 %5, -1
  store i32 %dec, ptr %fCountExisting, align 4
  %6 = load ptr, ptr %p, align 8
  store ptr %6, ptr %resB.addr, align 8
  br label %while.cond, !llvm.loop !24

while.end:                                        ; preds = %while.cond
  ret void
}

; Function Attrs: mustprogress uwtable
define linkonce_odr void @_ZN6icu_755MutexC2EPNS_6UMutexE(ptr noundef nonnull align 8 dereferenceable(8) %this, ptr noundef %mutex) unnamed_addr #1 comdat align 2 {
entry:
  %this.addr = alloca ptr, align 8
  %mutex.addr = alloca ptr, align 8
  store ptr %this, ptr %this.addr, align 8
  store ptr %mutex, ptr %mutex.addr, align 8
  %this1 = load ptr, ptr %this.addr, align 8
  %fMutex = getelementptr inbounds %"class.icu_75::Mutex", ptr %this1, i32 0, i32 0
  %0 = load ptr, ptr %mutex.addr, align 8
  store ptr %0, ptr %fMutex, align 8
  %fMutex2 = getelementptr inbounds %"class.icu_75::Mutex", ptr %this1, i32 0, i32 0
  %1 = load ptr, ptr %fMutex2, align 8
  call void @umtx_lock_75(ptr noundef %1)
  ret void
}

; Function Attrs: mustprogress nounwind uwtable
define internal noundef signext i8 @_ZL18ures_isStackObjectPK15UResourceBundle(ptr noundef %resB) #0 {
entry:
  %resB.addr = alloca ptr, align 8
  store ptr %resB, ptr %resB.addr, align 8
  %0 = load ptr, ptr %resB.addr, align 8
  %fMagic1 = getelementptr inbounds %struct.UResourceBundle, ptr %0, i32 0, i32 10
  %1 = load i32, ptr %fMagic1, align 4
  %cmp = icmp eq i32 %1, 19700503
  br i1 %cmp, label %land.rhs, label %land.end

land.rhs:                                         ; preds = %entry
  %2 = load ptr, ptr %resB.addr, align 8
  %fMagic2 = getelementptr inbounds %struct.UResourceBundle, ptr %2, i32 0, i32 11
  %3 = load i32, ptr %fMagic2, align 8
  %cmp1 = icmp eq i32 %3, 19641227
  br label %land.end

land.end:                                         ; preds = %land.rhs, %entry
  %4 = phi i1 [ false, %entry ], [ %cmp1, %land.rhs ]
  %cond = select i1 %4, i1 false, i1 true
  %conv = zext i1 %cond to i8
  ret i8 %conv
}

; Function Attrs: mustprogress uwtable
define internal void @_ZL16ures_freeResPathP15UResourceBundle(ptr noundef %resB) #1 {
entry:
  %resB.addr = alloca ptr, align 8
  store ptr %resB, ptr %resB.addr, align 8
  %0 = load ptr, ptr %resB.addr, align 8
  %fResPath = getelementptr inbounds %struct.UResourceBundle, ptr %0, i32 0, i32 4
  %1 = load ptr, ptr %fResPath, align 8
  %tobool = icmp ne ptr %1, null
  br i1 %tobool, label %land.lhs.true, label %if.end

land.lhs.true:                                    ; preds = %entry
  %2 = load ptr, ptr %resB.addr, align 8
  %fResPath1 = getelementptr inbounds %struct.UResourceBundle, ptr %2, i32 0, i32 4
  %3 = load ptr, ptr %fResPath1, align 8
  %4 = load ptr, ptr %resB.addr, align 8
  %fResBuf = getelementptr inbounds %struct.UResourceBundle, ptr %4, i32 0, i32 5
  %arraydecay = getelementptr inbounds [64 x i8], ptr %fResBuf, i64 0, i64 0
  %cmp = icmp ne ptr %3, %arraydecay
  br i1 %cmp, label %if.then, label %if.end

if.then:                                          ; preds = %land.lhs.true
  %5 = load ptr, ptr %resB.addr, align 8
  %fResPath2 = getelementptr inbounds %struct.UResourceBundle, ptr %5, i32 0, i32 4
  %6 = load ptr, ptr %fResPath2, align 8
  call void @uprv_free_75(ptr noundef %6)
  br label %if.end

if.end:                                           ; preds = %if.then, %land.lhs.true, %entry
  %7 = load ptr, ptr %resB.addr, align 8
  %fResPath3 = getelementptr inbounds %struct.UResourceBundle, ptr %7, i32 0, i32 4
  store ptr null, ptr %fResPath3, align 8
  %8 = load ptr, ptr %resB.addr, align 8
  %fResPathLen = getelementptr inbounds %struct.UResourceBundle, ptr %8, i32 0, i32 6
  store i32 0, ptr %fResPathLen, align 8
  ret void
}

; Function Attrs: mustprogress uwtable
define internal void @_ZL10entryCloseP18UResourceDataEntry(ptr noundef %resB) #1 personality ptr @__gxx_personality_v0 {
entry:
  %resB.addr = alloca ptr, align 8
  %lock = alloca %"class.icu_75::Mutex", align 8
  %exn.slot = alloca ptr, align 8
  %ehselector.slot = alloca i32, align 4
  store ptr %resB, ptr %resB.addr, align 8
  call void @_ZN6icu_755MutexC2EPNS_6UMutexE(ptr noundef nonnull align 8 dereferenceable(8) %lock, ptr noundef @_ZL9resbMutex)
  %0 = load ptr, ptr %resB.addr, align 8
  invoke void @_ZL13entryCloseIntP18UResourceDataEntry(ptr noundef %0)
          to label %invoke.cont unwind label %lpad

invoke.cont:                                      ; preds = %entry
  call void @_ZN6icu_755MutexD2Ev(ptr noundef nonnull align 8 dereferenceable(8) %lock) #10
  ret void

lpad:                                             ; preds = %entry
  %1 = landingpad { ptr, i32 }
          cleanup
  %2 = extractvalue { ptr, i32 } %1, 0
  store ptr %2, ptr %exn.slot, align 8
  %3 = extractvalue { ptr, i32 } %1, 1
  store i32 %3, ptr %ehselector.slot, align 4
  call void @_ZN6icu_755MutexD2Ev(ptr noundef nonnull align 8 dereferenceable(8) %lock) #10
  br label %eh.resume

eh.resume:                                        ; preds = %lpad
  %exn = load ptr, ptr %exn.slot, align 8
  %sel = load i32, ptr %ehselector.slot, align 4
  %lpad.val = insertvalue { ptr, i32 } poison, ptr %exn, 0
  %lpad.val1 = insertvalue { ptr, i32 } %lpad.val, i32 %sel, 1
  resume { ptr, i32 } %lpad.val1
}

; Function Attrs: mustprogress uwtable
define internal void @_ZL16ures_closeBundleP15UResourceBundlea(ptr noundef %resB, i8 noundef signext %freeBundleObj) #1 {
entry:
  %resB.addr = alloca ptr, align 8
  %freeBundleObj.addr = alloca i8, align 1
  store ptr %resB, ptr %resB.addr, align 8
  store i8 %freeBundleObj, ptr %freeBundleObj.addr, align 1
  %0 = load ptr, ptr %resB.addr, align 8
  %cmp = icmp ne ptr %0, null
  br i1 %cmp, label %if.then, label %if.end11

if.then:                                          ; preds = %entry
  %1 = load ptr, ptr %resB.addr, align 8
  %fData = getelementptr inbounds %struct.UResourceBundle, ptr %1, i32 0, i32 1
  %2 = load ptr, ptr %fData, align 8
  %cmp1 = icmp ne ptr %2, null
  br i1 %cmp1, label %if.then2, label %if.end

if.then2:                                         ; preds = %if.then
  %3 = load ptr, ptr %resB.addr, align 8
  %fData3 = getelementptr inbounds %struct.UResourceBundle, ptr %3, i32 0, i32 1
  %4 = load ptr, ptr %fData3, align 8
  call void @_ZL10entryCloseP18UResourceDataEntry(ptr noundef %4)
  br label %if.end

if.end:                                           ; preds = %if.then2, %if.then
  %5 = load ptr, ptr %resB.addr, align 8
  %fVersion = getelementptr inbounds %struct.UResourceBundle, ptr %5, i32 0, i32 2
  %6 = load ptr, ptr %fVersion, align 8
  %cmp4 = icmp ne ptr %6, null
  br i1 %cmp4, label %if.then5, label %if.end7

if.then5:                                         ; preds = %if.end
  %7 = load ptr, ptr %resB.addr, align 8
  %fVersion6 = getelementptr inbounds %struct.UResourceBundle, ptr %7, i32 0, i32 2
  %8 = load ptr, ptr %fVersion6, align 8
  call void @uprv_free_75(ptr noundef %8)
  br label %if.end7

if.end7:                                          ; preds = %if.then5, %if.end
  %9 = load ptr, ptr %resB.addr, align 8
  call void @_ZL16ures_freeResPathP15UResourceBundle(ptr noundef %9)
  %10 = load ptr, ptr %resB.addr, align 8
  %call = call noundef signext i8 @_ZL18ures_isStackObjectPK15UResourceBundle(ptr noundef %10)
  %conv = sext i8 %call to i32
  %cmp8 = icmp eq i32 %conv, 0
  br i1 %cmp8, label %land.lhs.true, label %if.end10

land.lhs.true:                                    ; preds = %if.end7
  %11 = load i8, ptr %freeBundleObj.addr, align 1
  %tobool = icmp ne i8 %11, 0
  br i1 %tobool, label %if.then9, label %if.end10

if.then9:                                         ; preds = %land.lhs.true
  %12 = load ptr, ptr %resB.addr, align 8
  call void @uprv_free_75(ptr noundef %12)
  br label %if.end10

if.end10:                                         ; preds = %if.then9, %land.lhs.true, %if.end7
  br label %if.end11

if.end11:                                         ; preds = %if.end10, %entry
  ret void
}