; Function Attrs: mustprogress uwtable
define internal fastcc void @_ZL16ures_closeBundleP15UResourceBundlea(ptr noundef %resB, i8 noundef signext %freeBundleObj) unnamed_addr #1 personality ptr @__gxx_personality_v0 {
entry:
  %cmp.not = icmp eq ptr %resB, null
  br i1 %cmp.not, label %if.end11, label %if.then

if.then:                                          ; preds = %entry
  %fData = getelementptr inbounds i8, ptr %resB, i64 8
  %0 = load ptr, ptr %fData, align 8
  %cmp1.not = icmp eq ptr %0, null
  br i1 %cmp1.not, label %if.end, label %if.then2

if.then2:                                         ; preds = %if.then
  tail call void @umtx_lock_75(ptr noundef nonnull @_ZL9resbMutex)
  br label %while.body.i.i

while.body.i.i:                                   ; preds = %if.then2, %while.body.i.i
  %resB.addr.05.i.i = phi ptr [ %1, %while.body.i.i ], [ %0, %if.then2 ]
  %fParent.i.i = getelementptr inbounds i8, ptr %resB.addr.05.i.i, i64 16
  %1 = load ptr, ptr %fParent.i.i, align 8
  %fCountExisting.i.i = getelementptr inbounds i8, ptr %resB.addr.05.i.i, i64 108
  %2 = load i32, ptr %fCountExisting.i.i, align 4
  %dec.i.i = add i32 %2, -1
  store i32 %dec.i.i, ptr %fCountExisting.i.i, align 4
  %cmp.not.i.i = icmp eq ptr %1, null
  br i1 %cmp.not.i.i, label %_ZL13entryCloseIntP18UResourceDataEntry.exit.i, label %while.body.i.i, !llvm.loop !4

_ZL13entryCloseIntP18UResourceDataEntry.exit.i:   ; preds = %while.body.i.i
  invoke void @umtx_unlock_75(ptr noundef nonnull @_ZL9resbMutex)
          to label %if.end unwind label %terminate.lpad.i.i

terminate.lpad.i.i:                               ; preds = %_ZL13entryCloseIntP18UResourceDataEntry.exit.i
  %3 = landingpad { ptr, i32 }
          catch ptr null
  %4 = extractvalue { ptr, i32 } %3, 0
  tail call void @__clang_call_terminate(ptr %4) #22
  unreachable

if.end:                                           ; preds = %_ZL13entryCloseIntP18UResourceDataEntry.exit.i, %if.then
  %fVersion = getelementptr inbounds i8, ptr %resB, i64 16
  %5 = load ptr, ptr %fVersion, align 8
  %cmp4.not = icmp eq ptr %5, null
  br i1 %cmp4.not, label %if.end7, label %if.then5

if.then5:                                         ; preds = %if.end
  tail call void @uprv_free_75(ptr noundef nonnull %5)
  br label %if.end7

if.end7:                                          ; preds = %if.then5, %if.end
  %fResPath.i = getelementptr inbounds i8, ptr %resB, i64 32
  %6 = load ptr, ptr %fResPath.i, align 8
  %tobool.not.i = icmp eq ptr %6, null
  %fResBuf.i = getelementptr inbounds i8, ptr %resB, i64 40
  %cmp.not.i = icmp eq ptr %6, %fResBuf.i
  %or.cond.i = select i1 %tobool.not.i, i1 true, i1 %cmp.not.i
  br i1 %or.cond.i, label %_ZL16ures_freeResPathP15UResourceBundle.exit, label %if.then.i

if.then.i:                                        ; preds = %if.end7
  tail call void @uprv_free_75(ptr noundef nonnull %6)
  br label %_ZL16ures_freeResPathP15UResourceBundle.exit

_ZL16ures_freeResPathP15UResourceBundle.exit:     ; preds = %if.end7, %if.then.i
  store ptr null, ptr %fResPath.i, align 8
  %fResPathLen.i = getelementptr inbounds i8, ptr %resB, i64 104
  store i32 0, ptr %fResPathLen.i, align 8
  %fMagic1.i = getelementptr inbounds i8, ptr %resB, i64 116
  %7 = load i32, ptr %fMagic1.i, align 4
  %cmp.i = icmp eq i32 %7, 19700503
  br i1 %cmp.i, label %_ZL18ures_isStackObjectPK15UResourceBundle.exit, label %if.end11

_ZL18ures_isStackObjectPK15UResourceBundle.exit:  ; preds = %_ZL16ures_freeResPathP15UResourceBundle.exit
  %fMagic2.i = getelementptr inbounds i8, ptr %resB, i64 120
  %8 = load i32, ptr %fMagic2.i, align 8
  %cmp1.i.not = icmp eq i32 %8, 19641227
  %tobool = icmp ne i8 %freeBundleObj, 0
  %or.cond = and i1 %tobool, %cmp1.i.not
  br i1 %or.cond, label %if.then9, label %if.end11

if.then9:                                         ; preds = %_ZL18ures_isStackObjectPK15UResourceBundle.exit
  tail call void @uprv_free_75(ptr noundef nonnull %resB)
  br label %if.end11

if.end11:                                         ; preds = %_ZL16ures_freeResPathP15UResourceBundle.exit, %_ZL18ures_isStackObjectPK15UResourceBundle.exit, %if.then9, %entry
  ret void
}